; Function Attrs: mustprogress uwtable
define hidden noundef ptr @_ZN7datalog14dl_decl_plugin9mk_unionwEiP4sortS2_(ptr noundef nonnull align 8 dereferenceable(160) %0, i32 noundef %1, ptr noundef %2, ptr noundef %3) local_unnamed_addr #3 align 2 personality ptr @__gxx_personality_v0 {
  %5 = alloca %class.ptr_vector.40, align 8
  %6 = alloca [2 x ptr], align 16
  %7 = alloca %struct.func_decl_info, align 8
  %8 = getelementptr inbounds nuw i8, ptr %0, i64 8
  %9 = load ptr, ptr %8, align 8, !tbaa !3
  %.not = icmp eq ptr %2, %3
  br i1 %.not, label %11, label %10

10:                                               ; preds = %4
  tail call void @_ZN11ast_manager15raise_exceptionEPKc(ptr noundef nonnull align 8 dereferenceable(976) %9, ptr noundef nonnull @.str.37) #23
  unreachable

11:                                               ; preds = %4
  call void @llvm.lifetime.start.p0(i64 8, ptr nonnull %5) #22
  store ptr null, ptr %5, align 8, !tbaa !57
  %12 = invoke noundef zeroext i1 @_ZN7datalog14dl_decl_plugin11is_rel_sortEP4sortR10ptr_vectorIS1_E(ptr noundef nonnull readonly align 8 dereferenceable(160) %0, ptr noundef readonly %2, ptr noundef nonnull align 8 dereferenceable(8) %5)
          to label %13 unwind label %20

13:                                               ; preds = %11
  %14 = load ptr, ptr %5, align 8, !tbaa !57
  %.not.i.i.i = icmp eq ptr %14, null
  br i1 %.not.i.i.i, label %_ZN7datalog14dl_decl_plugin11is_rel_sortEP4sort.exit, label %15

15:                                               ; preds = %13
  %16 = getelementptr inbounds i8, ptr %14, i64 -8
  invoke void @_ZN6memory10deallocateEPv(ptr noundef nonnull %16)
          to label %_ZN7datalog14dl_decl_plugin11is_rel_sortEP4sort.exit unwind label %17

17:                                               ; preds = %15
  %18 = landingpad { ptr, i32 }
          catch ptr null
  %19 = extractvalue { ptr, i32 } %18, 0
  call void @__clang_call_terminate(ptr %19) #25
  unreachable

common.resume:                                    ; preds = %47, %20
  %common.resume.op = phi { ptr, i32 } [ %21, %20 ], [ %48, %47 ]
  resume { ptr, i32 } %common.resume.op

20:                                               ; preds = %11
  %21 = landingpad { ptr, i32 }
          cleanup
  call void @_ZN6vectorIP4sortLb0EjED2Ev(ptr noundef nonnull align 8 dereferenceable(8) %5) #22
  call void @llvm.lifetime.end.p0(i64 8, ptr nonnull %5) #22
  br label %common.resume

_ZN7datalog14dl_decl_plugin11is_rel_sortEP4sort.exit: ; preds = %13, %15
  call void @llvm.lifetime.end.p0(i64 8, ptr nonnull %5) #22
  call void @llvm.lifetime.start.p0(i64 16, ptr nonnull %6) #22
  store ptr %2, ptr %6, align 16, !tbaa !62
  %22 = getelementptr inbounds nuw i8, ptr %6, i64 8
  store ptr %3, ptr %22, align 8, !tbaa !62
  call void @llvm.lifetime.start.p0(i64 24, ptr nonnull %7) #22
  %23 = getelementptr inbounds nuw i8, ptr %0, i64 16
  %24 = load i32, ptr %23, align 8, !tbaa !10
  call void @_ZN14func_decl_infoC1EiijPK9parameter(ptr noundef nonnull align 8 dereferenceable(19) %7, i32 noundef %24, i32 noundef %1, i32 noundef 0, ptr noundef null)
  %25 = getelementptr inbounds nuw i8, ptr %0, i64 56
  %26 = load i32, ptr %7, align 8, !tbaa !43
  %27 = icmp eq i32 %26, -1
  br i1 %27, label %28, label %_ZNK14func_decl_info7is_nullEv.exit.thread.i

28:                                               ; preds = %_ZN7datalog14dl_decl_plugin11is_rel_sortEP4sort.exit
  %29 = getelementptr inbounds nuw i8, ptr %7, i64 17
  %30 = load i16, ptr %29, align 1
  %31 = trunc i16 %30 to i1
  %32 = and i16 %30, 506
  %33 = icmp ne i16 %32, 0
  %or.cond.not.i = or i1 %33, %31
  br i1 %or.cond.not.i, label %_ZNK14func_decl_info7is_nullEv.exit.thread.i, label %34

_ZNK14func_decl_info7is_nullEv.exit.thread.i:     ; preds = %28, %_ZN7datalog14dl_decl_plugin11is_rel_sortEP4sort.exit
  br label %34

34:                                               ; preds = %_ZNK14func_decl_info7is_nullEv.exit.thread.i, %28
  %.sink.i = phi ptr [ %7, %_ZNK14func_decl_info7is_nullEv.exit.thread.i ], [ null, %28 ]
  %35 = invoke noundef ptr @_ZN11ast_manager12mk_func_declERK6symboljPKP4sortS4_P14func_decl_info(ptr noundef nonnull align 8 dereferenceable(976) %9, ptr noundef nonnull align 8 dereferenceable(8) %25, i32 noundef 2, ptr noundef nonnull %6, ptr noundef %2, ptr noundef %.sink.i)
          to label %_ZN11ast_manager12mk_func_declERK6symboljPKP4sortS4_RK14func_decl_info.exit unwind label %47

_ZN11ast_manager12mk_func_declERK6symboljPKP4sortS4_RK14func_decl_info.exit: ; preds = %34
  %36 = getelementptr inbounds nuw i8, ptr %7, i64 8
  %37 = load ptr, ptr %36, align 8, !tbaa !48
  %.not.i.i.i13 = icmp eq ptr %37, null
  br i1 %.not.i.i.i13, label %_ZN9decl_infoD2Ev.exit, label %_ZNK6vectorI9parameterLb1EjE4sizeEv.exit.i.i.i.i

_ZNK6vectorI9parameterLb1EjE4sizeEv.exit.i.i.i.i: ; preds = %_ZN11ast_manager12mk_func_declERK6symboljPKP4sortS4_RK14func_decl_info.exit
  %38 = getelementptr inbounds i8, ptr %37, i64 -4
  %39 = load i32, ptr %38, align 4, !tbaa !49
  %.not5.i.i.i.i.i.i.i = icmp eq i32 %39, 0
  br i1 %.not5.i.i.i.i.i.i.i, label %_ZN6vectorI9parameterLb1EjE16destroy_elementsEv.exit.i.i.i, label %.lr.ph.i.i.i.i.i.i.i

.lr.ph.i.i.i.i.i.i.i:                             ; preds = %_ZNK6vectorI9parameterLb1EjE4sizeEv.exit.i.i.i.i, %.lr.ph.i.i.i.i.i.i.i
  %.07.i.i.i.i.i.i.i = phi i32 [ %41, %.lr.ph.i.i.i.i.i.i.i ], [ %39, %_ZNK6vectorI9parameterLb1EjE4sizeEv.exit.i.i.i.i ]
  %.046.i.i.i.i.i.i.i = phi ptr [ %40, %.lr.ph.i.i.i.i.i.i.i ], [ %37, %_ZNK6vectorI9parameterLb1EjE4sizeEv.exit.i.i.i.i ]
  call void @_ZN9parameterD1Ev(ptr noundef nonnull align 8 dereferenceable(16) %.046.i.i.i.i.i.i.i) #22
  %40 = getelementptr inbounds nuw i8, ptr %.046.i.i.i.i.i.i.i, i64 16
  %41 = add i32 %.07.i.i.i.i.i.i.i, -1
  %.not.i.i.i.i.i.i.i = icmp eq i32 %41, 0
  br i1 %.not.i.i.i.i.i.i.i, label %_ZN6vectorI9parameterLb1EjE16destroy_elementsEv.exit.loopexit.i.i.i, label %.lr.ph.i.i.i.i.i.i.i, !llvm.loop !50

_ZN6vectorI9parameterLb1EjE16destroy_elementsEv.exit.loopexit.i.i.i: ; preds = %.lr.ph.i.i.i.i.i.i.i
  %.pre.i.i.i = load ptr, ptr %36, align 8, !tbaa !48
  br label %_ZN6vectorI9parameterLb1EjE16destroy_elementsEv.exit.i.i.i

_ZN6vectorI9parameterLb1EjE16destroy_elementsEv.exit.i.i.i: ; preds = %_ZN6vectorI9parameterLb1EjE16destroy_elementsEv.exit.loopexit.i.i.i, %_ZNK6vectorI9parameterLb1EjE4sizeEv.exit.i.i.i.i
  %42 = phi ptr [ %.pre.i.i.i, %_ZN6vectorI9parameterLb1EjE16destroy_elementsEv.exit.loopexit.i.i.i ], [ %37, %_ZNK6vectorI9parameterLb1EjE4sizeEv.exit.i.i.i.i ]
  %43 = getelementptr inbounds i8, ptr %42, i64 -8
  invoke void @_ZN6memory10deallocateEPv(ptr noundef nonnull %43)
          to label %_ZN9decl_infoD2Ev.exit unwind label %44

44:                                               ; preds = %_ZN6vectorI9parameterLb1EjE16destroy_elementsEv.exit.i.i.i
  %45 = landingpad { ptr, i32 }
          catch ptr null
  %46 = extractvalue { ptr, i32 } %45, 0
  call void @__clang_call_terminate(ptr %46) #25
  unreachable

_ZN9decl_infoD2Ev.exit:                           ; preds = %_ZN11ast_manager12mk_func_declERK6symboljPKP4sortS4_RK14func_decl_info.exit, %_ZN6vectorI9parameterLb1EjE16destroy_elementsEv.exit.i.i.i
  call void @llvm.lifetime.end.p0(i64 24, ptr nonnull %7) #22
  call void @llvm.lifetime.end.p0(i64 16, ptr nonnull %6) #22
  ret ptr %35

47:                                               ; preds = %34
  %48 = landingpad { ptr, i32 }
          cleanup
  call void @_ZN9decl_infoD2Ev(ptr noundef nonnull align 8 dereferenceable(19) %7) #22
  call void @llvm.lifetime.end.p0(i64 24, ptr nonnull %7) #22
  call void @llvm.lifetime.end.p0(i64 16, ptr nonnull %6) #22
  br label %common.resume
}